EXPORTS 
	??_R0?AU_Crt_new_delete@std@@@8 	 DATA
	??_R0?AU_Fmt_buffer_traits@std@@@8 	 DATA
	??_R0?AV?$_Fmt_buffer@D@std@@@8 	 DATA
	??_R0?AV?$_Fmt_iterator_buffer@V?$back_insert_iterator@V?$basic_string@DU?$char_traits@D@std@@V?$allocator@D@2@@std@@@std@@DU_Fmt_buffer_traits@2@@std@@@8 	 DATA
	??_R0?AV?$numpunct@D@std@@@8 	 DATA
	??_R0?AV_Facet_base@std@@@8 	 DATA
	??_R0?AV_Generic_error_category@std@@@8 	 DATA
	??_R0?AV_System_error@std@@@8 	 DATA
	??_R0?AVbad_alloc@std@@@8 	 DATA
	??_R0?AVbad_array_new_length@std@@@8 	 DATA
	??_R0?AVbad_cast@std@@@8 	 DATA
	??_R0?AVerror_category@std@@@8 	 DATA
	??_R0?AVexception@std@@@8 	 DATA
	??_R0?AVfacet@locale@std@@@8 	 DATA
	??_R0?AVformat_error@std@@@8 	 DATA
	??_R0?AVruntime_error@std@@@8 	 DATA
	??_R0?AVsystem_error@std@@@8 	 DATA
	?_Psave@?$_Facetptr@V?$numpunct@D@std@@@std@@2PEBVfacet@locale@2@EB 	 DATA
	?_Static@?1???$_Immortalize_memcpy_image@V_Generic_error_category@std@@@std@@YAAEBV_Generic_error_category@1@XZ@4V21@B 	 DATA
	??$?RD@_Precision_checker@std@@QEBA_KD@Z
	??$?RD@_Width_checker@std@@QEBA_KD@Z
	??$?RH@?$_Arg_formatter@V?$back_insert_iterator@V?$_Fmt_buffer@D@std@@@std@@D@std@@QEAA?AV?$back_insert_iterator@V?$_Fmt_buffer@D@std@@@1@H@Z
	??$?RH@?$_Default_arg_formatter@V?$back_insert_iterator@V?$_Fmt_buffer@D@std@@@std@@D@std@@QEHAA?AV?$back_insert_iterator@V?$_Fmt_buffer@D@std@@@1@H@Z
	??$?RM@_Precision_checker@std@@QEBA_KM@Z
	??$?RM@_Width_checker@std@@QEBA_KM@Z
	??$?RN@_Precision_checker@std@@QEBA_KN@Z
	??$?RN@_Width_checker@std@@QEBA_KN@Z
	??$?RO@_Precision_checker@std@@QEBA_KO@Z
	??$?RO@_Width_checker@std@@QEBA_KO@Z
	??$?RPEBD@_Precision_checker@std@@QEBA_KQEBD@Z
	??$?RPEBD@_Width_checker@std@@QEBA_KQEBD@Z
	??$?RPEBX@_Precision_checker@std@@QEBA_KQEBX@Z
	??$?RPEBX@_Width_checker@std@@QEBA_KQEBX@Z
	??$?RUmonostate@std@@@_Precision_checker@std@@QEBA_KUmonostate@1@@Z
	??$?RUmonostate@std@@@_Width_checker@std@@QEBA_KUmonostate@1@@Z
	??$?RV?$basic_string_view@DU?$char_traits@D@std@@@std@@@_Precision_checker@std@@QEBA_KV?$basic_string_view@DU?$char_traits@D@std@@@1@@Z
	??$?RV?$basic_string_view@DU?$char_traits@D@std@@@std@@@_Width_checker@std@@QEBA_KV?$basic_string_view@DU?$char_traits@D@std@@@1@@Z
	??$?RVhandle@?$basic_format_arg@V?$basic_format_context@V?$back_insert_iterator@V?$_Fmt_buffer@D@std@@@std@@D@std@@@std@@@_Precision_checker@std@@QEBA_KVhandle@?$basic_format_arg@V?$basic_format_context@V?$back_insert_iterator@V?$_Fmt_buffer@D@std@@@std@@D@std@@@1@@Z
	??$?RVhandle@?$basic_format_arg@V?$basic_format_context@V?$back_insert_iterator@V?$_Fmt_buffer@D@std@@@std@@D@std@@@std@@@_Width_checker@std@@QEBA_KVhandle@?$basic_format_arg@V?$basic_format_context@V?$back_insert_iterator@V?$_Fmt_buffer@D@std@@@std@@D@std@@@1@@Z
	??$?R_N@_Precision_checker@std@@QEBA_K_N@Z
	??$?R_N@_Width_checker@std@@QEBA_K_N@Z
	??$_Allocate_manually_vector_aligned@U_Default_allocate_traits@std@@@std@@YAPEAX_K@Z
	??$_Checked_x86_x64_countl_zero@_K@std@@YAH_K@Z
	??$_Construct@$00PEBD@?$basic_string@DU?$char_traits@D@std@@V?$allocator@D@2@@std@@AEAAXQEBD_K@Z
	??$_Copy_memmove@PEADPEAD@std@@YAPEADPEAD00@Z
	??$_Copy_memmove@PEBDPEAD@std@@YAPEADPEBD0PEAD@Z
	??$_Copy_memmove_n@PEADPEAD@std@@YAPEADPEAD_K0@Z
	??$_Countl_zero_bsr@_K@std@@YAH_K@Z
	??$_Countl_zero_lzcnt@_K@std@@YAH_K@Z
	??$_Fill_memset@PEADD@std@@YAXPEADD_K@Z
	??$_Floating_to_chars@$00M@std@@YA?AUto_chars_result@0@PEADQEADMW4chars_format@0@H@Z
	??$_Floating_to_chars@$00N@std@@YA?AUto_chars_result@0@PEADQEADNW4chars_format@0@H@Z
	??$_Floating_to_chars@$01M@std@@YA?AUto_chars_result@0@PEADQEADMW4chars_format@0@H@Z
	??$_Floating_to_chars@$01N@std@@YA?AUto_chars_result@0@PEADQEADNW4chars_format@0@H@Z
	??$_Floating_to_chars@$0A@M@std@@YA?AUto_chars_result@0@PEADQEADMW4chars_format@0@H@Z
	??$_Floating_to_chars@$0A@N@std@@YA?AUto_chars_result@0@PEADQEADNW4chars_format@0@H@Z
	??$_Floating_to_chars_fixed_precision@M@std@@YA?AUto_chars_result@0@QEAD0MH@Z
	??$_Floating_to_chars_fixed_precision@N@std@@YA?AUto_chars_result@0@QEAD0NH@Z
	??$_Floating_to_chars_general_precision@M@std@@YA?AUto_chars_result@0@PEADQEADMH@Z
	??$_Floating_to_chars_general_precision@N@std@@YA?AUto_chars_result@0@PEADQEADNH@Z
	??$_Floating_to_chars_hex_precision@M@std@@YA?AUto_chars_result@0@PEADQEADMH@Z
	??$_Floating_to_chars_hex_precision@N@std@@YA?AUto_chars_result@0@PEADQEADNH@Z
	??$_Floating_to_chars_hex_shortest@M@std@@YA?AUto_chars_result@0@PEADQEADM@Z
	??$_Floating_to_chars_hex_shortest@N@std@@YA?AUto_chars_result@0@PEADQEADN@Z
	??$_Floating_to_chars_ryu@M@std@@YA?AUto_chars_result@0@QEAD0MW4chars_format@0@@Z
	??$_Floating_to_chars_ryu@N@std@@YA?AUto_chars_result@0@QEAD0NW4chars_format@0@@Z
	??$_Floating_to_chars_scientific_precision@M@std@@YA?AUto_chars_result@0@QEAD0MH@Z
	??$_Floating_to_chars_scientific_precision@N@std@@YA?AUto_chars_result@0@QEAD0NH@Z
	??$_Fmt_write@DV?$back_insert_iterator@V?$_Fmt_buffer@D@std@@@std@@@std@@YA?AV?$back_insert_iterator@V?$_Fmt_buffer@D@std@@@0@V10@D@Z
	??$_Fmt_write@DV?$back_insert_iterator@V?$_Fmt_buffer@D@std@@@std@@@std@@YA?AV?$back_insert_iterator@V?$_Fmt_buffer@D@std@@@0@V10@DU?$_Basic_format_specs@D@0@V_Lazy_locale@0@@Z
	??$_Fmt_write@DV?$back_insert_iterator@V?$_Fmt_buffer@D@std@@@std@@@std@@YA?AV?$back_insert_iterator@V?$_Fmt_buffer@D@std@@@0@V10@PEBD@Z
	??$_Fmt_write@DV?$back_insert_iterator@V?$_Fmt_buffer@D@std@@@std@@@std@@YA?AV?$back_insert_iterator@V?$_Fmt_buffer@D@std@@@0@V10@PEBDAEBU?$_Basic_format_specs@D@0@V_Lazy_locale@0@@Z
	??$_Fmt_write@DV?$back_insert_iterator@V?$_Fmt_buffer@D@std@@@std@@@std@@YA?AV?$back_insert_iterator@V?$_Fmt_buffer@D@std@@@0@V10@QEBX@Z
	??$_Fmt_write@DV?$back_insert_iterator@V?$_Fmt_buffer@D@std@@@std@@@std@@YA?AV?$back_insert_iterator@V?$_Fmt_buffer@D@std@@@0@V10@QEBXAEBU?$_Basic_format_specs@D@0@V_Lazy_locale@0@@Z
	??$_Fmt_write@DV?$back_insert_iterator@V?$_Fmt_buffer@D@std@@@std@@@std@@YA?AV?$back_insert_iterator@V?$_Fmt_buffer@D@std@@@0@V10@Umonostate@0@@Z
	??$_Fmt_write@DV?$back_insert_iterator@V?$_Fmt_buffer@D@std@@@std@@@std@@YA?AV?$back_insert_iterator@V?$_Fmt_buffer@D@std@@@0@V10@Umonostate@0@AEBU?$_Basic_format_specs@D@0@V_Lazy_locale@0@@Z
	??$_Fmt_write@DV?$back_insert_iterator@V?$_Fmt_buffer@D@std@@@std@@@std@@YA?AV?$back_insert_iterator@V?$_Fmt_buffer@D@std@@@0@V10@V?$basic_string_view@DU?$char_traits@D@std@@@0@@Z
	??$_Fmt_write@DV?$back_insert_iterator@V?$_Fmt_buffer@D@std@@@std@@@std@@YA?AV?$back_insert_iterator@V?$_Fmt_buffer@D@std@@@0@V10@V?$basic_string_view@DU?$char_traits@D@std@@@0@AEBU?$_Basic_format_specs@D@0@V_Lazy_locale@0@@Z
	??$_Fmt_write@DV?$back_insert_iterator@V?$_Fmt_buffer@D@std@@@std@@@std@@YA?AV?$back_insert_iterator@V?$_Fmt_buffer@D@std@@@0@V10@_N@Z
	??$_Fmt_write@DV?$back_insert_iterator@V?$_Fmt_buffer@D@std@@@std@@@std@@YA?AV?$back_insert_iterator@V?$_Fmt_buffer@D@std@@@0@V10@_NU?$_Basic_format_specs@D@0@V_Lazy_locale@0@@Z
	??$_Fmt_write@DV?$back_insert_iterator@V?$_Fmt_buffer@D@std@@@std@@H@std@@YA?AV?$back_insert_iterator@V?$_Fmt_buffer@D@std@@@0@V10@H@Z
	??$_Fmt_write@DV?$back_insert_iterator@V?$_Fmt_buffer@D@std@@@std@@H@std@@YA?AV?$back_insert_iterator@V?$_Fmt_buffer@D@std@@@0@V10@HAEBU?$_Basic_format_specs@D@0@V_Lazy_locale@0@@Z
	??$_Fmt_write@DV?$back_insert_iterator@V?$_Fmt_buffer@D@std@@@std@@I@std@@YA?AV?$back_insert_iterator@V?$_Fmt_buffer@D@std@@@0@V10@I@Z
	??$_Fmt_write@DV?$back_insert_iterator@V?$_Fmt_buffer@D@std@@@std@@I@std@@YA?AV?$back_insert_iterator@V?$_Fmt_buffer@D@std@@@0@V10@IAEBU?$_Basic_format_specs@D@0@V_Lazy_locale@0@@Z
	??$_Fmt_write@DV?$back_insert_iterator@V?$_Fmt_buffer@D@std@@@std@@M@std@@YA?AV?$back_insert_iterator@V?$_Fmt_buffer@D@std@@@0@V10@M@Z
	??$_Fmt_write@DV?$back_insert_iterator@V?$_Fmt_buffer@D@std@@@std@@M@std@@YA?AV?$back_insert_iterator@V?$_Fmt_buffer@D@std@@@0@V10@MAEBU?$_Basic_format_specs@D@0@V_Lazy_locale@0@@Z
	??$_Fmt_write@DV?$back_insert_iterator@V?$_Fmt_buffer@D@std@@@std@@N@std@@YA?AV?$back_insert_iterator@V?$_Fmt_buffer@D@std@@@0@V10@N@Z
	??$_Fmt_write@DV?$back_insert_iterator@V?$_Fmt_buffer@D@std@@@std@@N@std@@YA?AV?$back_insert_iterator@V?$_Fmt_buffer@D@std@@@0@V10@NAEBU?$_Basic_format_specs@D@0@V_Lazy_locale@0@@Z
	??$_Fmt_write@DV?$back_insert_iterator@V?$_Fmt_buffer@D@std@@@std@@O@std@@YA?AV?$back_insert_iterator@V?$_Fmt_buffer@D@std@@@0@V10@O@Z
	??$_Fmt_write@DV?$back_insert_iterator@V?$_Fmt_buffer@D@std@@@std@@O@std@@YA?AV?$back_insert_iterator@V?$_Fmt_buffer@D@std@@@0@V10@OAEBU?$_Basic_format_specs@D@0@V_Lazy_locale@0@@Z
	??$_Fmt_write@DV?$back_insert_iterator@V?$_Fmt_buffer@D@std@@@std@@_J@std@@YA?AV?$back_insert_iterator@V?$_Fmt_buffer@D@std@@@0@V10@_J@Z
	??$_Fmt_write@DV?$back_insert_iterator@V?$_Fmt_buffer@D@std@@@std@@_J@std@@YA?AV?$back_insert_iterator@V?$_Fmt_buffer@D@std@@@0@V10@_JAEBU?$_Basic_format_specs@D@0@V_Lazy_locale@0@@Z
	??$_Fmt_write@DV?$back_insert_iterator@V?$_Fmt_buffer@D@std@@@std@@_K@std@@YA?AV?$back_insert_iterator@V?$_Fmt_buffer@D@std@@@0@V10@_K@Z
	??$_Fmt_write@DV?$back_insert_iterator@V?$_Fmt_buffer@D@std@@@std@@_K@std@@YA?AV?$back_insert_iterator@V?$_Fmt_buffer@D@std@@@0@V10@_KAEBU?$_Basic_format_specs@D@0@V_Lazy_locale@0@@Z
	??$_Get_dynamic_specs@V_Precision_checker@std@@V?$basic_format_arg@V?$basic_format_context@V?$back_insert_iterator@V?$_Fmt_buffer@D@std@@@std@@D@std@@@2@@std@@YAHV?$basic_format_arg@V?$basic_format_context@V?$back_insert_iterator@V?$_Fmt_buffer@D@std@@@std@@D@std@@@0@@Z
	??$_Get_dynamic_specs@V_Width_checker@std@@V?$basic_format_arg@V?$basic_format_context@V?$back_insert_iterator@V?$_Fmt_buffer@D@std@@@std@@D@std@@@2@@std@@YAHV?$basic_format_arg@V?$basic_format_context@V?$back_insert_iterator@V?$_Fmt_buffer@D@std@@@std@@D@std@@@0@@Z
	??$_Getvals@_W@?$time_get@DV?$istreambuf_iterator@DU?$char_traits@D@std@@@std@@@std@@IEAAX_WAEBV_Locinfo@1@@Z
	??$_Getvals@_W@?$time_get@_WV?$istreambuf_iterator@_WU?$char_traits@_W@std@@@std@@@std@@IEAAX_WAEBV_Locinfo@1@@Z
	??$_Immortalize_memcpy_image@V_Generic_error_category@std@@@std@@YAAEBV_Generic_error_category@0@XZ
	??$_Integer_to_chars@D@std@@YA?AUto_chars_result@0@PEADQEADDH@Z
	??$_Integer_to_chars@E@std@@YA?AUto_chars_result@0@PEADQEADEH@Z
	??$_Integer_to_chars@H@std@@YA?AUto_chars_result@0@PEADQEADHH@Z
	??$_Integer_to_chars@I@std@@YA?AUto_chars_result@0@PEADQEADIH@Z
	??$_Integer_to_chars@_J@std@@YA?AUto_chars_result@0@PEADQEAD_JH@Z
	??$_Integer_to_chars@_K@std@@YA?AUto_chars_result@0@PEADQEAD_KH@Z
	??$_Large_integer_to_chars@D@std@@YA?AU?$pair@PEADW4errc@std@@@0@QEAD0IH@Z
	??$_Maklocchr@D@std@@YADDPEADAEBU_Cvtvec@@@Z
	??$_Maklocstr@D@std@@YAPEADPEBDPEADAEBU_Cvtvec@@@Z
	??$_Measure_string_prefix@D@std@@YAPEBDV?$basic_string_view@DU?$char_traits@D@std@@@0@AEAH@Z
	??$_On_type@D@?$_Specs_checker@V?$_Specs_handler@V?$basic_format_parse_context@D@std@@V?$basic_format_context@V?$back_insert_iterator@V?$_Fmt_buffer@D@std@@@std@@D@2@@std@@@std@@QEAAXD@Z
	??$_Parse_arg_id@DAEAU?$_Id_adapter@D@std@@@std@@YAPEBDPEBD0AEAU?$_Id_adapter@D@0@@Z
	??$_Parse_arg_id@DU?$_Precision_adapter@DAEAV?$_Specs_checker@V?$_Specs_handler@V?$basic_format_parse_context@D@std@@V?$basic_format_context@V?$back_insert_iterator@V?$_Fmt_buffer@D@std@@@std@@D@2@@std@@@std@@@std@@@std@@YAPEBDPEBD0$$QEAU?$_Precision_adapter@DAEAV?$_Specs_checker@V?$_Specs_handler@V?$basic_format_parse_context@D@std@@V?$basic_format_context@V?$back_insert_iterator@V?$_Fmt_buffer@D@std@@@std@@D@2@@std@@@std@@@0@@Z
	??$_Parse_arg_id@DU?$_Width_adapter@DAEAV?$_Specs_checker@V?$_Specs_handler@V?$basic_format_parse_context@D@std@@V?$basic_format_context@V?$back_insert_iterator@V?$_Fmt_buffer@D@std@@@std@@D@2@@std@@@std@@@std@@@std@@YAPEBDPEBD0$$QEAU?$_Width_adapter@DAEAV?$_Specs_checker@V?$_Specs_handler@V?$basic_format_parse_context@D@std@@V?$basic_format_context@V?$back_insert_iterator@V?$_Fmt_buffer@D@std@@@std@@D@2@@std@@@std@@@0@@Z
	??$_Parse_format_specs@DAEAV?$_Specs_checker@V?$_Specs_handler@V?$basic_format_parse_context@D@std@@V?$basic_format_context@V?$back_insert_iterator@V?$_Fmt_buffer@D@std@@@std@@D@2@@std@@@std@@@std@@YAPEBDPEBD0AEAV?$_Specs_checker@V?$_Specs_handler@V?$basic_format_parse_context@D@std@@V?$basic_format_context@V?$back_insert_iterator@V?$_Fmt_buffer@D@std@@@std@@D@2@@std@@@0@@Z
	??$_Parse_format_string@DAEAU?$_Format_handler@D@std@@@std@@YAXV?$basic_string_view@DU?$char_traits@D@std@@@0@AEAU?$_Format_handler@D@0@@Z
	??$_Parse_replacement_field@DAEAU?$_Format_handler@D@std@@@std@@YAPEBDPEBD0AEAU?$_Format_handler@D@0@@Z
	??$_Print_impl@AEA_J@std@@YAXW4_Add_newline@0@QEAU_iobuf@@U?$basic_format_string@DAEA_J@0@AEA_J@Z
	??$_Reallocate_grow_by@V<lambda_1>@?1??append@?$basic_string@DU?$char_traits@D@std@@V?$allocator@D@2@@std@@QEAAAEAV34@QEBD_K@Z@PEBD_K@?$basic_string@DU?$char_traits@D@std@@V?$allocator@D@2@@std@@AEAAAEAV01@_KV<lambda_1>@?1??append@01@QEAAAEAV01@QEBD0@Z@PEBD_K@Z
	??$_Reallocate_grow_by@V<lambda_1>@?1??insert@?$basic_string@DU?$char_traits@D@std@@V?$allocator@D@2@@std@@QEAAAEAV34@_KQEBD0@Z@_KPEBD_K@?$basic_string@DU?$char_traits@D@std@@V?$allocator@D@2@@std@@AEAAAEAV01@_KV<lambda_1>@?1??insert@01@QEAAAEAV01@0QEBD0@Z@_KPEBD3@Z
	??$_Reallocate_grow_by@V<lambda_1>@?1??push_back@?$basic_string@DU?$char_traits@D@std@@V?$allocator@D@2@@std@@QEAAXD@Z@D@?$basic_string@DU?$char_traits@D@std@@V?$allocator@D@2@@std@@AEAAAEAV01@_KV<lambda_1>@?1??push_back@01@QEAAXD@Z@D@Z
	??$_Reallocate_grow_by@V<lambda_1>@?1??reserve@?$basic_string@DU?$char_traits@D@std@@V?$allocator@D@2@@std@@QEAAX_K@Z@$$V@?$basic_string@DU?$char_traits@D@std@@V?$allocator@D@2@@std@@AEAAAEAV01@_KV<lambda_1>@?1??reserve@01@QEAAX0@Z@@Z
	??$_Widen_and_copy@DV?$back_insert_iterator@V?$_Fmt_buffer@D@std@@@std@@@std@@YA?AV?$back_insert_iterator@V?$_Fmt_buffer@D@std@@@0@PEBDQEBDV10@@Z
	??$_Write_aligned@V?$back_insert_iterator@V?$_Fmt_buffer@D@std@@@std@@U?$_Basic_format_specs@D@2@AEAV<lambda_1>@?1???$_Fmt_write@DV?$back_insert_iterator@V?$_Fmt_buffer@D@std@@@std@@M@2@YA?AV12@V12@MAEBU32@V_Lazy_locale@2@@Z@@std@@YA?AV?$back_insert_iterator@V?$_Fmt_buffer@D@std@@@0@V10@HAEBU?$_Basic_format_specs@D@0@W4_Fmt_align@0@AEAV<lambda_1>@?1???$_Fmt_write@DV?$back_insert_iterator@V?$_Fmt_buffer@D@std@@@std@@M@0@YA?AV10@0M1V_Lazy_locale@0@@Z@@Z
	??$_Write_aligned@V?$back_insert_iterator@V?$_Fmt_buffer@D@std@@@std@@U?$_Basic_format_specs@D@2@AEAV<lambda_1>@?1???$_Fmt_write@DV?$back_insert_iterator@V?$_Fmt_buffer@D@std@@@std@@N@2@YA?AV12@V12@NAEBU32@V_Lazy_locale@2@@Z@@std@@YA?AV?$back_insert_iterator@V?$_Fmt_buffer@D@std@@@0@V10@HAEBU?$_Basic_format_specs@D@0@W4_Fmt_align@0@AEAV<lambda_1>@?1???$_Fmt_write@DV?$back_insert_iterator@V?$_Fmt_buffer@D@std@@@std@@N@0@YA?AV10@0N1V_Lazy_locale@0@@Z@@Z
	??$_Write_aligned@V?$back_insert_iterator@V?$_Fmt_buffer@D@std@@@std@@U?$_Basic_format_specs@D@2@AEAV<lambda_1>@?1???$_Fmt_write@DV?$back_insert_iterator@V?$_Fmt_buffer@D@std@@@std@@O@2@YA?AV12@V12@OAEBU32@V_Lazy_locale@2@@Z@@std@@YA?AV?$back_insert_iterator@V?$_Fmt_buffer@D@std@@@0@V10@HAEBU?$_Basic_format_specs@D@0@W4_Fmt_align@0@AEAV<lambda_1>@?1???$_Fmt_write@DV?$back_insert_iterator@V?$_Fmt_buffer@D@std@@@std@@O@0@YA?AV10@0O1V_Lazy_locale@0@@Z@@Z
	??$_Write_aligned@V?$back_insert_iterator@V?$_Fmt_buffer@D@std@@@std@@U?$_Basic_format_specs@D@2@AEAV<lambda_1>@?1???$_Write_integral@DV?$back_insert_iterator@V?$_Fmt_buffer@D@std@@@std@@D@2@YA?AV12@V12@DU32@V_Lazy_locale@2@@Z@@std@@YA?AV?$back_insert_iterator@V?$_Fmt_buffer@D@std@@@0@V10@HAEBU?$_Basic_format_specs@D@0@W4_Fmt_align@0@AEAV<lambda_1>@?1???$_Write_integral@DV?$back_insert_iterator@V?$_Fmt_buffer@D@std@@@std@@D@0@YA?AV10@0DU20@V_Lazy_locale@0@@Z@@Z
	??$_Write_aligned@V?$back_insert_iterator@V?$_Fmt_buffer@D@std@@@std@@U?$_Basic_format_specs@D@2@AEAV<lambda_1>@?1???$_Write_integral@DV?$back_insert_iterator@V?$_Fmt_buffer@D@std@@@std@@E@2@YA?AV12@V12@EU32@V_Lazy_locale@2@@Z@@std@@YA?AV?$back_insert_iterator@V?$_Fmt_buffer@D@std@@@0@V10@HAEBU?$_Basic_format_specs@D@0@W4_Fmt_align@0@AEAV<lambda_1>@?1???$_Write_integral@DV?$back_insert_iterator@V?$_Fmt_buffer@D@std@@@std@@E@0@YA?AV10@0EU20@V_Lazy_locale@0@@Z@@Z
	??$_Write_aligned@V?$back_insert_iterator@V?$_Fmt_buffer@D@std@@@std@@U?$_Basic_format_specs@D@2@AEAV<lambda_1>@?1???$_Write_integral@DV?$back_insert_iterator@V?$_Fmt_buffer@D@std@@@std@@H@2@YA?AV12@V12@HU32@V_Lazy_locale@2@@Z@@std@@YA?AV?$back_insert_iterator@V?$_Fmt_buffer@D@std@@@0@V10@HAEBU?$_Basic_format_specs@D@0@W4_Fmt_align@0@AEAV<lambda_1>@?1???$_Write_integral@DV?$back_insert_iterator@V?$_Fmt_buffer@D@std@@@std@@H@0@YA?AV10@0HU20@V_Lazy_locale@0@@Z@@Z
	??$_Write_aligned@V?$back_insert_iterator@V?$_Fmt_buffer@D@std@@@std@@U?$_Basic_format_specs@D@2@AEAV<lambda_1>@?1???$_Write_integral@DV?$back_insert_iterator@V?$_Fmt_buffer@D@std@@@std@@I@2@YA?AV12@V12@IU32@V_Lazy_locale@2@@Z@@std@@YA?AV?$back_insert_iterator@V?$_Fmt_buffer@D@std@@@0@V10@HAEBU?$_Basic_format_specs@D@0@W4_Fmt_align@0@AEAV<lambda_1>@?1???$_Write_integral@DV?$back_insert_iterator@V?$_Fmt_buffer@D@std@@@std@@I@0@YA?AV10@0IU20@V_Lazy_locale@0@@Z@@Z
	??$_Write_aligned@V?$back_insert_iterator@V?$_Fmt_buffer@D@std@@@std@@U?$_Basic_format_specs@D@2@AEAV<lambda_1>@?1???$_Write_integral@DV?$back_insert_iterator@V?$_Fmt_buffer@D@std@@@std@@_J@2@YA?AV12@V12@_JU32@V_Lazy_locale@2@@Z@@std@@YA?AV?$back_insert_iterator@V?$_Fmt_buffer@D@std@@@0@V10@HAEBU?$_Basic_format_specs@D@0@W4_Fmt_align@0@AEAV<lambda_1>@?1???$_Write_integral@DV?$back_insert_iterator@V?$_Fmt_buffer@D@std@@@std@@_J@0@YA?AV10@0_JU20@V_Lazy_locale@0@@Z@@Z
	??$_Write_aligned@V?$back_insert_iterator@V?$_Fmt_buffer@D@std@@@std@@U?$_Basic_format_specs@D@2@AEAV<lambda_1>@?1???$_Write_integral@DV?$back_insert_iterator@V?$_Fmt_buffer@D@std@@@std@@_K@2@YA?AV12@V12@_KU32@V_Lazy_locale@2@@Z@@std@@YA?AV?$back_insert_iterator@V?$_Fmt_buffer@D@std@@@0@V10@HAEBU?$_Basic_format_specs@D@0@W4_Fmt_align@0@AEAV<lambda_1>@?1???$_Write_integral@DV?$back_insert_iterator@V?$_Fmt_buffer@D@std@@@std@@_K@0@YA?AV10@0_KU20@V_Lazy_locale@0@@Z@@Z
	??$_Write_aligned@V?$back_insert_iterator@V?$_Fmt_buffer@D@std@@@std@@U?$_Basic_format_specs@D@2@V<lambda_1>@?1???$_Fmt_write@DV?$back_insert_iterator@V?$_Fmt_buffer@D@std@@@std@@@2@YA?AV12@V12@QEBXAEBU32@V_Lazy_locale@2@@Z@@std@@YA?AV?$back_insert_iterator@V?$_Fmt_buffer@D@std@@@0@V10@HAEBU?$_Basic_format_specs@D@0@W4_Fmt_align@0@$$QEAV<lambda_1>@?1???$_Fmt_write@DV?$back_insert_iterator@V?$_Fmt_buffer@D@std@@@std@@@0@YA?AV10@0QEBX1V_Lazy_locale@0@@Z@@Z
	??$_Write_aligned@V?$back_insert_iterator@V?$_Fmt_buffer@D@std@@@std@@U?$_Basic_format_specs@D@2@V<lambda_1>@?1???$_Fmt_write@DV?$back_insert_iterator@V?$_Fmt_buffer@D@std@@@std@@@2@YA?AV12@V12@V?$basic_string_view@DU?$char_traits@D@std@@@2@AEBU32@V_Lazy_locale@2@@Z@@std@@YA?AV?$back_insert_iterator@V?$_Fmt_buffer@D@std@@@0@V10@HAEBU?$_Basic_format_specs@D@0@W4_Fmt_align@0@$$QEAV<lambda_1>@?1???$_Fmt_write@DV?$back_insert_iterator@V?$_Fmt_buffer@D@std@@@std@@@0@YA?AV10@0V?$basic_string_view@DU?$char_traits@D@std@@@0@1V_Lazy_locale@0@@Z@@Z
	??$_Write_integral@DV?$back_insert_iterator@V?$_Fmt_buffer@D@std@@@std@@D@std@@YA?AV?$back_insert_iterator@V?$_Fmt_buffer@D@std@@@0@V10@DU?$_Basic_format_specs@D@0@V_Lazy_locale@0@@Z
	??$_Write_integral@DV?$back_insert_iterator@V?$_Fmt_buffer@D@std@@@std@@E@std@@YA?AV?$back_insert_iterator@V?$_Fmt_buffer@D@std@@@0@V10@EU?$_Basic_format_specs@D@0@V_Lazy_locale@0@@Z
	??$_Write_integral@DV?$back_insert_iterator@V?$_Fmt_buffer@D@std@@@std@@H@std@@YA?AV?$back_insert_iterator@V?$_Fmt_buffer@D@std@@@0@V10@HU?$_Basic_format_specs@D@0@V_Lazy_locale@0@@Z
	??$_Write_integral@DV?$back_insert_iterator@V?$_Fmt_buffer@D@std@@@std@@I@std@@YA?AV?$back_insert_iterator@V?$_Fmt_buffer@D@std@@@0@V10@IU?$_Basic_format_specs@D@0@V_Lazy_locale@0@@Z
	??$_Write_integral@DV?$back_insert_iterator@V?$_Fmt_buffer@D@std@@@std@@_J@std@@YA?AV?$back_insert_iterator@V?$_Fmt_buffer@D@std@@@0@V10@_JU?$_Basic_format_specs@D@0@V_Lazy_locale@0@@Z
	??$_Write_integral@DV?$back_insert_iterator@V?$_Fmt_buffer@D@std@@@std@@_K@std@@YA?AV?$back_insert_iterator@V?$_Fmt_buffer@D@std@@@0@V10@_KU?$_Basic_format_specs@D@0@V_Lazy_locale@0@@Z
	??$_Write_separated_integer@DV?$back_insert_iterator@V?$_Fmt_buffer@D@std@@@std@@@std@@YA?AV?$back_insert_iterator@V?$_Fmt_buffer@D@std@@@0@PEBDQEBDV?$basic_string_view@DU?$char_traits@D@std@@@0@DHV10@@Z
	??$_Write_sign@V?$back_insert_iterator@V?$_Fmt_buffer@D@std@@@std@@@std@@YA?AV?$back_insert_iterator@V?$_Fmt_buffer@D@std@@@0@V10@W4_Fmt_sign@0@_N@Z
	??$__append_c_digits@D@std@@YAXIIQEAD@Z
	??$__append_n_digits@D@std@@YAXIIQEAD@Z
	??$__append_nine_digits@D@std@@YAXIQEAD@Z
	??$__d2fixed_buffered_n@D@std@@YA?AU?$pair@PEADW4errc@std@@@0@PEADQEADNI@Z
	??$__d2s_buffered_n@D@std@@YA?AU?$pair@PEADW4errc@std@@@0@QEAD0NW4chars_format@0@@Z
	??$__f2s_buffered_n@D@std@@YA?AU?$pair@PEADW4errc@std@@@0@QEAD0MW4chars_format@0@@Z
	??$__std_find_trivial@$$CBDD@@YAPEBDPEBD0D@Z
	??$__std_find_trivial@DD@@YAPEADPEAD0D@Z
	??$__to_chars@D@std@@YA?AU?$pair@PEADW4errc@std@@@0@QEAD0U__floating_decimal_32@0@W4chars_format@0@II@Z
	??$__to_chars@D@std@@YA?AU?$pair@PEADW4errc@std@@@0@QEAD0U__floating_decimal_64@0@W4chars_format@0@N@Z
	??$make_format_args@V?$basic_format_context@V?$back_insert_iterator@V?$_Fmt_buffer@D@std@@@std@@D@std@@AEA_J@std@@YA?A_PAEA_J@Z
	??$print@AEA_J@std@@YAXQEAU_iobuf@@U?$basic_format_string@DAEA_J@0@AEA_J@Z
	??$print@AEA_J@std@@YAXU?$basic_format_string@DAEA_J@0@AEA_J@Z
	??$use_facet@V?$numpunct@D@std@@@std@@YAAEBV?$numpunct@D@0@AEBVlocale@0@@Z
	??$vformat@$0A@@std@@YA?AV?$basic_string@DU?$char_traits@D@std@@V?$allocator@D@2@@0@V?$basic_string_view@DU?$char_traits@D@std@@@0@V?$basic_format_args@V?$basic_format_context@V?$back_insert_iterator@V?$_Fmt_buffer@D@std@@@std@@D@std@@@0@@Z
	??$vformat_to@V?$back_insert_iterator@V?$basic_string@DU?$char_traits@D@std@@V?$allocator@D@2@@std@@@std@@@std@@YA?AV?$back_insert_iterator@V?$basic_string@DU?$char_traits@D@std@@V?$allocator@D@2@@std@@@0@V10@V?$basic_string_view@DU?$char_traits@D@std@@@0@V?$basic_format_args@V?$basic_format_context@V?$back_insert_iterator@V?$_Fmt_buffer@D@std@@@std@@D@std@@@0@@Z
	??$visit_format_arg@AEBV<lambda_1>@?1??_Estimate_required_capacity@?$basic_format_args@V?$basic_format_context@V?$back_insert_iterator@V?$_Fmt_buffer@D@std@@@std@@D@std@@@std@@QEBA_KXZ@V?$basic_format_context@V?$back_insert_iterator@V?$_Fmt_buffer@D@std@@@std@@D@4@@std@@YA?A_TAEBV<lambda_1>@?1??_Estimate_required_capacity@?$basic_format_args@V?$basic_format_context@V?$back_insert_iterator@V?$_Fmt_buffer@D@std@@@std@@D@std@@@0@QEBA_KXZ@V?$basic_format_arg@V?$basic_format_context@V?$back_insert_iterator@V?$_Fmt_buffer@D@std@@@std@@D@std@@@0@@Z
	??$visit_format_arg@U?$_Arg_formatter@V?$back_insert_iterator@V?$_Fmt_buffer@D@std@@@std@@D@std@@V?$basic_format_context@V?$back_insert_iterator@V?$_Fmt_buffer@D@std@@@std@@D@2@@std@@YA?A_T$$QEAU?$_Arg_formatter@V?$back_insert_iterator@V?$_Fmt_buffer@D@std@@@std@@D@0@V?$basic_format_arg@V?$basic_format_context@V?$back_insert_iterator@V?$_Fmt_buffer@D@std@@@std@@D@std@@@0@@Z
	??$visit_format_arg@U?$_Default_arg_formatter@V?$back_insert_iterator@V?$_Fmt_buffer@D@std@@@std@@D@std@@V?$basic_format_context@V?$back_insert_iterator@V?$_Fmt_buffer@D@std@@@std@@D@2@@std@@YA?A_T$$QEAU?$_Default_arg_formatter@V?$back_insert_iterator@V?$_Fmt_buffer@D@std@@@std@@D@0@V?$basic_format_arg@V?$basic_format_context@V?$back_insert_iterator@V?$_Fmt_buffer@D@std@@@std@@D@std@@@0@@Z
	??$visit_format_arg@V_Precision_checker@std@@V?$basic_format_context@V?$back_insert_iterator@V?$_Fmt_buffer@D@std@@@std@@D@2@@std@@YA?A_T$$QEAV_Precision_checker@0@V?$basic_format_arg@V?$basic_format_context@V?$back_insert_iterator@V?$_Fmt_buffer@D@std@@@std@@D@std@@@0@@Z
	??$visit_format_arg@V_Width_checker@std@@V?$basic_format_context@V?$back_insert_iterator@V?$_Fmt_buffer@D@std@@@std@@D@2@@std@@YA?A_T$$QEAV_Width_checker@0@V?$basic_format_arg@V?$basic_format_context@V?$back_insert_iterator@V?$_Fmt_buffer@D@std@@@std@@D@std@@@0@@Z
	??0?$basic_string@DU?$char_traits@D@std@@V?$allocator@D@2@@std@@QEAA@AEBV01@@Z
	??0?$numpunct@D@std@@QEAA@AEBV_Locinfo@1@_K_N@Z
	??0_System_error@std@@IEAA@Verror_code@1@AEBV?$basic_string@DU?$char_traits@D@std@@V?$allocator@D@2@@1@@Z
	??0_System_error@std@@QEAA@AEBV01@@Z
	??0bad_alloc@std@@QEAA@AEBV01@@Z
	??0bad_array_new_length@std@@QEAA@AEBV01@@Z
	??0bad_array_new_length@std@@QEAA@XZ
	??0bad_cast@std@@QEAA@AEBV01@@Z
	??0exception@std@@QEAA@AEBV01@@Z
	??0format_error@std@@QEAA@AEBV01@@Z
	??0format_error@std@@QEAA@PEBD@Z
	??0runtime_error@std@@QEAA@AEBV01@@Z
	??0system_error@std@@QEAA@AEBV01@@Z
	??0system_error@std@@QEAA@Verror_code@1@@Z
	??1?$_Fmt_iterator_buffer@V?$back_insert_iterator@V?$basic_string@DU?$char_traits@D@std@@V?$allocator@D@2@@std@@@std@@DU_Fmt_buffer_traits@2@@std@@QEAA@XZ
	??1?$_Tidy_guard@V?$numpunct@D@std@@@std@@QEAA@XZ
	??1?$basic_string@DU?$char_traits@D@std@@V?$allocator@D@2@@std@@QEAA@XZ
	??1?$numpunct@D@std@@MEAA@XZ
	??1?$unique_ptr@V_Facet_base@std@@U?$default_delete@V_Facet_base@std@@@2@@std@@QEAA@XZ
	??1bad_array_new_length@std@@UEAA@XZ
	??1bad_cast@std@@UEAA@XZ
	??1error_category@std@@UEAA@XZ
	??1exception@std@@UEAA@XZ
	??1format_error@std@@UEAA@XZ
	??1locale@std@@QEAA@XZ
	??1system_error@std@@UEAA@XZ
	??E?$_Grapheme_break_property_iterator@D@std@@QEAAAEAV01@XZ
	??R<lambda_1>@?1???$_Fmt_write@DV?$back_insert_iterator@V?$_Fmt_buffer@D@std@@@std@@M@std@@YA?AV?$back_insert_iterator@V?$_Fmt_buffer@D@std@@@1@V21@MAEBU?$_Basic_format_specs@D@1@V_Lazy_locale@1@@Z@QEBA@0@Z
	??R<lambda_1>@?1???$_Fmt_write@DV?$back_insert_iterator@V?$_Fmt_buffer@D@std@@@std@@N@std@@YA?AV?$back_insert_iterator@V?$_Fmt_buffer@D@std@@@1@V21@NAEBU?$_Basic_format_specs@D@1@V_Lazy_locale@1@@Z@QEBA@0@Z
	??R<lambda_1>@?1???$_Fmt_write@DV?$back_insert_iterator@V?$_Fmt_buffer@D@std@@@std@@O@std@@YA?AV?$back_insert_iterator@V?$_Fmt_buffer@D@std@@@1@V21@OAEBU?$_Basic_format_specs@D@1@V_Lazy_locale@1@@Z@QEBA@0@Z
	??R<lambda_1>@?1???$_Write_integral@DV?$back_insert_iterator@V?$_Fmt_buffer@D@std@@@std@@D@std@@YA?AV?$back_insert_iterator@V?$_Fmt_buffer@D@std@@@1@V21@DU?$_Basic_format_specs@D@1@V_Lazy_locale@1@@Z@QEBA@0@Z
	??R<lambda_1>@?1???$_Write_integral@DV?$back_insert_iterator@V?$_Fmt_buffer@D@std@@@std@@E@std@@YA?AV?$back_insert_iterator@V?$_Fmt_buffer@D@std@@@1@V21@EU?$_Basic_format_specs@D@1@V_Lazy_locale@1@@Z@QEBA@0@Z
	??R<lambda_1>@?1???$_Write_integral@DV?$back_insert_iterator@V?$_Fmt_buffer@D@std@@@std@@H@std@@YA?AV?$back_insert_iterator@V?$_Fmt_buffer@D@std@@@1@V21@HU?$_Basic_format_specs@D@1@V_Lazy_locale@1@@Z@QEBA@0@Z
	??R<lambda_1>@?1???$_Write_integral@DV?$back_insert_iterator@V?$_Fmt_buffer@D@std@@@std@@I@std@@YA?AV?$back_insert_iterator@V?$_Fmt_buffer@D@std@@@1@V21@IU?$_Basic_format_specs@D@1@V_Lazy_locale@1@@Z@QEBA@0@Z
	??R<lambda_1>@?1???$_Write_integral@DV?$back_insert_iterator@V?$_Fmt_buffer@D@std@@@std@@_J@std@@YA?AV?$back_insert_iterator@V?$_Fmt_buffer@D@std@@@1@V21@_JU?$_Basic_format_specs@D@1@V_Lazy_locale@1@@Z@QEBA@0@Z
	??R<lambda_1>@?1???$_Write_integral@DV?$back_insert_iterator@V?$_Fmt_buffer@D@std@@@std@@_K@std@@YA?AV?$back_insert_iterator@V?$_Fmt_buffer@D@std@@@1@V21@_KU?$_Basic_format_specs@D@1@V_Lazy_locale@1@@Z@QEBA@0@Z
	??R?$_Arg_formatter@V?$back_insert_iterator@V?$_Fmt_buffer@D@std@@@std@@D@std@@QEAA?AV?$back_insert_iterator@V?$_Fmt_buffer@D@std@@@1@Vhandle@?$basic_format_arg@V?$basic_format_context@V?$back_insert_iterator@V?$_Fmt_buffer@D@std@@@std@@D@std@@@1@@Z
	?_Decode_utf@std@@YAPEBDPEBD0AEA_U@Z
	?_Flush@?$_Fmt_iterator_buffer@V?$back_insert_iterator@V?$basic_string@DU?$char_traits@D@std@@V?$allocator@D@2@@std@@@std@@DU_Fmt_buffer_traits@2@@std@@AEAAXXZ
	?_Grow@?$_Fmt_iterator_buffer@V?$back_insert_iterator@V?$basic_string@DU?$char_traits@D@std@@V?$allocator@D@2@@std@@@std@@DU_Fmt_buffer_traits@2@@std@@EEAAX_K@Z
	?_Makestr@_System_error@std@@CA?AV?$basic_string@DU?$char_traits@D@std@@V?$allocator@D@2@@2@Verror_code@2@V32@@Z
	?_Maklocwcs@std@@YAPEA_WPEB_W@Z
	?_On_replacement_field@?$_Format_handler@D@std@@QEAAX_KPEBD@Z
	?_On_text@?$_Format_handler@D@std@@QEAAXPEBD0@Z
	?_Throw_bad_array_new_length@std@@YAXXZ
	?_Throw_format_error@std@@YAXQEBD@Z
	?_Throw_system_error@std@@YAXW4errc@1@@Z
	?_Xlen_string@std@@YAXXZ
	?_Xran@?$_String_val@U?$_Simple_types@D@std@@@std@@SAXXZ
	?__append_d_digits@std@@YAXIIQEAD@Z
	?__d2d@std@@YA?AU__floating_decimal_64@1@_KI@Z
	?__d2exp_buffered_n@std@@YA?AUto_chars_result@1@PEADQEADNI@Z
	?__decimalLength9@std@@YAII@Z
	?__f2d@std@@YA?AU__floating_decimal_32@1@II@Z
	?__mulShift_mod1e9@std@@YAI_KQEB_KH@Z
	?__multipleOfPowerOf5@std@@YA_NII@Z
	?__multipleOfPowerOf5@std@@YA_N_KI@Z
	?allocate@?$allocator@D@std@@QEAAPEAD_K@Z
	?append@?$basic_string@DU?$char_traits@D@std@@V?$allocator@D@2@@std@@QEAAAEAV12@QEBD_K@Z
	?default_error_condition@error_category@std@@UEBA?AVerror_condition@2@H@Z
	?do_decimal_point@?$numpunct@D@std@@MEBADXZ
	?do_falsename@?$numpunct@D@std@@MEBA?AV?$basic_string@DU?$char_traits@D@std@@V?$allocator@D@2@@2@XZ
	?do_grouping@?$numpunct@D@std@@MEBA?AV?$basic_string@DU?$char_traits@D@std@@V?$allocator@D@2@@2@XZ
	?do_thousands_sep@?$numpunct@D@std@@MEBADXZ
	?do_truename@?$numpunct@D@std@@MEBA?AV?$basic_string@DU?$char_traits@D@std@@V?$allocator@D@2@@2@XZ
	?equivalent@error_category@std@@UEBA_NAEBVerror_code@2@H@Z
	?equivalent@error_category@std@@UEBA_NHAEBVerror_condition@2@@Z
	?get@?$basic_format_args@V?$basic_format_context@V?$back_insert_iterator@V?$_Fmt_buffer@D@std@@@std@@D@std@@@std@@QEBA?AV?$basic_format_arg@V?$basic_format_context@V?$back_insert_iterator@V?$_Fmt_buffer@D@std@@@std@@D@std@@@2@_K@Z
	?make_error_code@std@@YA?AVerror_code@1@W4errc@1@@Z
	?message@_Generic_error_category@std@@UEBA?AV?$basic_string@DU?$char_traits@D@std@@V?$allocator@D@2@@2@H@Z
	?name@_Generic_error_category@std@@UEBAPEBDXZ
	?virtualMachine@@YA_NAEAV?$vector@_JV?$allocator@_J@std@@@std@@@Z
	?what@exception@std@@UEBAPEBDXZ
